; ModuleID = '32/938.c'
source_filename = "32/938.c"
target datalayout = "e-m:e-p270:32:32-p271:32:32-p272:64:64-i64:64-f80:128-n8:16:32:64-S128"
target triple = "x86_64-pc-linux-gnu"

@.str = private unnamed_addr constant [3 x i8] c"%d\00", align 1
@.str.1 = private unnamed_addr constant [3 x i8] c"%s\00", align 1
@.str.2 = private unnamed_addr constant [2 x i8] c"\0A\00", align 1

; Function Attrs: noinline nounwind uwtable
define dso_local void @main() #0 {
  %1 = alloca i32, align 4
  %2 = alloca i32, align 4
  %3 = alloca i32, align 4
  %4 = alloca i32, align 4
  %5 = alloca i32, align 4
  %6 = alloca [100 x i8], align 16
  %7 = alloca [100 x i8], align 16
  %8 = alloca [100 x i32], align 16
  %9 = alloca i32, align 4
  %10 = call i32 (i8*, ...) @__isoc99_scanf(i8* getelementptr inbounds ([3 x i8], [3 x i8]* @.str, i64 0, i64 0), i32* %1)
  store i32 0, i32* %9, align 4
  br label %11

11:                                               ; preds = %150, %0
  %12 = load i32, i32* %9, align 4
  %13 = load i32, i32* %1, align 4
  %14 = icmp slt i32 %12, %13
  br i1 %14, label %15, label %153

15:                                               ; preds = %11
  store i32 0, i32* %5, align 4
  store i32 0, i32* %4, align 4
  br label %16

16:                                               ; preds = %23, %15
  %17 = load i32, i32* %4, align 4
  %18 = icmp slt i32 %17, 100
  br i1 %18, label %19, label %26

19:                                               ; preds = %16
  %20 = load i32, i32* %4, align 4
  %21 = sext i32 %20 to i64
  %22 = getelementptr inbounds [100 x i32], [100 x i32]* %8, i64 0, i64 %21
  store i32 0, i32* %22, align 4
  br label %23

23:                                               ; preds = %19
  %24 = load i32, i32* %4, align 4
  %25 = add nsw i32 %24, 1
  store i32 %25, i32* %4, align 4
  br label %16

26:                                               ; preds = %16
  %27 = getelementptr inbounds [100 x i8], [100 x i8]* %6, i64 0, i64 0
  %28 = call i32 (i8*, ...) @__isoc99_scanf(i8* getelementptr inbounds ([3 x i8], [3 x i8]* @.str.1, i64 0, i64 0), i8* %27)
  %29 = getelementptr inbounds [100 x i8], [100 x i8]* %7, i64 0, i64 0
  %30 = call i32 (i8*, ...) @__isoc99_scanf(i8* getelementptr inbounds ([3 x i8], [3 x i8]* @.str.1, i64 0, i64 0), i8* %29)
  %31 = getelementptr inbounds [100 x i8], [100 x i8]* %6, i64 0, i64 0
  %32 = call i64 @strlen(i8* %31) #3
  %33 = trunc i64 %32 to i32
  store i32 %33, i32* %2, align 4
  %34 = getelementptr inbounds [100 x i8], [100 x i8]* %7, i64 0, i64 0
  %35 = call i64 @strlen(i8* %34) #3
  %36 = trunc i64 %35 to i32
  store i32 %36, i32* %3, align 4
  store i32 0, i32* %4, align 4
  br label %37

37:                                               ; preds = %88, %26
  %38 = load i32, i32* %4, align 4
  %39 = load i32, i32* %3, align 4
  %40 = icmp slt i32 %38, %39
  br i1 %40, label %41, label %91

41:                                               ; preds = %37
  %42 = load i32, i32* %4, align 4
  %43 = sext i32 %42 to i64
  %44 = getelementptr inbounds [100 x i32], [100 x i32]* %8, i64 0, i64 %43
  %45 = load i32, i32* %44, align 4
  %46 = load i32, i32* %2, align 4
  %47 = sub nsw i32 %46, 1
  %48 = load i32, i32* %4, align 4
  %49 = sub nsw i32 %47, %48
  %50 = sext i32 %49 to i64
  %51 = getelementptr inbounds [100 x i8], [100 x i8]* %6, i64 0, i64 %50
  %52 = load i8, i8* %51, align 1
  %53 = sext i8 %52 to i32
  %54 = add nsw i32 %45, %53
  %55 = load i32, i32* %3, align 4
  %56 = sub nsw i32 %55, 1
  %57 = load i32, i32* %4, align 4
  %58 = sub nsw i32 %56, %57
  %59 = sext i32 %58 to i64
  %60 = getelementptr inbounds [100 x i8], [100 x i8]* %7, i64 0, i64 %59
  %61 = load i8, i8* %60, align 1
  %62 = sext i8 %61 to i32
  %63 = sub nsw i32 %54, %62
  %64 = load i32, i32* %4, align 4
  %65 = sext i32 %64 to i64
  %66 = getelementptr inbounds [100 x i32], [100 x i32]* %8, i64 0, i64 %65
  store i32 %63, i32* %66, align 4
  %67 = load i32, i32* %4, align 4
  %68 = sext i32 %67 to i64
  %69 = getelementptr inbounds [100 x i32], [100 x i32]* %8, i64 0, i64 %68
  %70 = load i32, i32* %69, align 4
  %71 = icmp slt i32 %70, 0
  br i1 %71, label %72, label %87

72:                                               ; preds = %41
  %73 = load i32, i32* %4, align 4
  %74 = sext i32 %73 to i64
  %75 = getelementptr inbounds [100 x i32], [100 x i32]* %8, i64 0, i64 %74
  %76 = load i32, i32* %75, align 4
  %77 = add nsw i32 %76, 10
  %78 = load i32, i32* %4, align 4
  %79 = sext i32 %78 to i64
  %80 = getelementptr inbounds [100 x i32], [100 x i32]* %8, i64 0, i64 %79
  store i32 %77, i32* %80, align 4
  %81 = load i32, i32* %4, align 4
  %82 = add nsw i32 %81, 1
  %83 = sext i32 %82 to i64
  %84 = getelementptr inbounds [100 x i32], [100 x i32]* %8, i64 0, i64 %83
  %85 = load i32, i32* %84, align 4
  %86 = sub nsw i32 %85, 1
  store i32 %86, i32* %84, align 4
  br label %87

87:                                               ; preds = %72, %41
  br label %88

88:                                               ; preds = %87
  %89 = load i32, i32* %4, align 4
  %90 = add nsw i32 %89, 1
  store i32 %90, i32* %4, align 4
  br label %37

91:                                               ; preds = %37
  %92 = load i32, i32* %3, align 4
  store i32 %92, i32* %4, align 4
  br label %93

93:                                               ; preds = %115, %91
  %94 = load i32, i32* %4, align 4
  %95 = load i32, i32* %2, align 4
  %96 = icmp slt i32 %94, %95
  br i1 %96, label %97, label %118

97:                                               ; preds = %93
  %98 = load i32, i32* %4, align 4
  %99 = sext i32 %98 to i64
  %100 = getelementptr inbounds [100 x i32], [100 x i32]* %8, i64 0, i64 %99
  %101 = load i32, i32* %100, align 4
  %102 = load i32, i32* %2, align 4
  %103 = sub nsw i32 %102, 1
  %104 = load i32, i32* %4, align 4
  %105 = sub nsw i32 %103, %104
  %106 = sext i32 %105 to i64
  %107 = getelementptr inbounds [100 x i8], [100 x i8]* %6, i64 0, i64 %106
  %108 = load i8, i8* %107, align 1
  %109 = sext i8 %108 to i32
  %110 = add nsw i32 %101, %109
  %111 = sub nsw i32 %110, 48
  %112 = load i32, i32* %4, align 4
  %113 = sext i32 %112 to i64
  %114 = getelementptr inbounds [100 x i32], [100 x i32]* %8, i64 0, i64 %113
  store i32 %111, i32* %114, align 4
  br label %115

115:                                              ; preds = %97
  %116 = load i32, i32* %4, align 4
  %117 = add nsw i32 %116, 1
  store i32 %117, i32* %4, align 4
  br label %93

118:                                              ; preds = %93
  store i32 99, i32* %4, align 4
  br label %119

119:                                              ; preds = %145, %118
  %120 = load i32, i32* %4, align 4
  %121 = icmp sge i32 %120, 0
  br i1 %121, label %122, label %148

122:                                              ; preds = %119
  %123 = load i32, i32* %4, align 4
  %124 = sext i32 %123 to i64
  %125 = getelementptr inbounds [100 x i32], [100 x i32]* %8, i64 0, i64 %124
  %126 = load i32, i32* %125, align 4
  %127 = icmp ne i32 %126, 0
  br i1 %127, label %128, label %134

128:                                              ; preds = %122
  %129 = load i32, i32* %4, align 4
  %130 = sext i32 %129 to i64
  %131 = getelementptr inbounds [100 x i32], [100 x i32]* %8, i64 0, i64 %130
  %132 = load i32, i32* %131, align 4
  %133 = call i32 (i8*, ...) @printf(i8* getelementptr inbounds ([3 x i8], [3 x i8]* @.str, i64 0, i64 0), i32 %132)
  store i32 1, i32* %5, align 4
  br label %144

134:                                              ; preds = %122
  %135 = load i32, i32* %5, align 4
  %136 = icmp ne i32 %135, 0
  br i1 %136, label %137, label %143

137:                                              ; preds = %134
  %138 = load i32, i32* %4, align 4
  %139 = sext i32 %138 to i64
  %140 = getelementptr inbounds [100 x i32], [100 x i32]* %8, i64 0, i64 %139
  %141 = load i32, i32* %140, align 4
  %142 = call i32 (i8*, ...) @printf(i8* getelementptr inbounds ([3 x i8], [3 x i8]* @.str, i64 0, i64 0), i32 %141)
  br label %143

143:                                              ; preds = %137, %134
  br label %144

144:                                              ; preds = %143, %128
  br label %145

145:                                              ; preds = %144
  %146 = load i32, i32* %4, align 4
  %147 = add nsw i32 %146, -1
  store i32 %147, i32* %4, align 4
  br label %119

148:                                              ; preds = %119
  %149 = call i32 (i8*, ...) @printf(i8* getelementptr inbounds ([2 x i8], [2 x i8]* @.str.2, i64 0, i64 0))
  br label %150

150:                                              ; preds = %148
  %151 = load i32, i32* %9, align 4
  %152 = add nsw i32 %151, 1
  store i32 %152, i32* %9, align 4
  br label %11

153:                                              ; preds = %11
  ret void
}

declare dso_local i32 @__isoc99_scanf(i8*, ...) #1

; Function Attrs: nounwind readonly
declare dso_local i64 @strlen(i8*) #2

declare dso_local i32 @printf(i8*, ...) #1


!llvm.module.flags = !{!0}
!llvm.ident = !{!1}

!0 = !{i32 1, !"wchar_size", i32 4}
!1 = !{!"clang version 10.0.0-4ubuntu1 "}
